; ModuleID = '39/2177.c'
source_filename = "39/2177.c"
target datalayout = "e-m:e-p270:32:32-p271:32:32-p272:64:64-i64:64-f80:128-n8:16:32:64-S128"
target triple = "x86_64-pc-linux-gnu"

@.str = private unnamed_addr constant [3 x i8] c"%d\00", align 1
@.str.1 = private unnamed_addr constant [13 x i8] c"%s%d%d%s%s%d\00", align 1
@.str.2 = private unnamed_addr constant [4 x i8] c"%s\0A\00", align 1
@.str.3 = private unnamed_addr constant [7 x i8] c"%d\0A%d\0A\00", align 1

; Function Attrs: noinline nounwind uwtable
define dso_local void @main() #0 {
  %1 = alloca [100 x [100 x i8]], align 16
  %2 = alloca [100 x [5 x i8]], align 16
  %3 = alloca [100 x [5 x i8]], align 16
  %4 = alloca [100 x i32], align 16
  %5 = alloca [100 x i32], align 16
  %6 = alloca [100 x i32], align 16
  %7 = alloca [100 x i32], align 16
  %8 = alloca i32, align 4
  %9 = alloca i32, align 4
  %10 = alloca i32, align 4
  %11 = alloca i32, align 4
  %12 = alloca i32, align 4
  %13 = bitcast [100 x i32]* %7 to i8*
  call void @llvm.memset.p0i8.i64(i8* align 16 %13, i8 0, i64 400, i1 false)
  store i32 0, i32* %9, align 4
  %14 = call i32 (i8*, ...) @__isoc99_scanf(i8* getelementptr inbounds ([3 x i8], [3 x i8]* @.str, i64 0, i64 0), i32* %8)
  store i32 0, i32* %10, align 4
  br label %15

15:                                               ; preds = %39, %0
  %16 = load i32, i32* %10, align 4
  %17 = load i32, i32* %8, align 4
  %18 = icmp slt i32 %16, %17
  br i1 %18, label %19, label %42

19:                                               ; preds = %15
  %20 = load i32, i32* %10, align 4
  %21 = sext i32 %20 to i64
  %22 = getelementptr inbounds [100 x [100 x i8]], [100 x [100 x i8]]* %1, i64 0, i64 %21
  %23 = load i32, i32* %10, align 4
  %24 = sext i32 %23 to i64
  %25 = getelementptr inbounds [100 x i32], [100 x i32]* %4, i64 0, i64 %24
  %26 = load i32, i32* %10, align 4
  %27 = sext i32 %26 to i64
  %28 = getelementptr inbounds [100 x i32], [100 x i32]* %5, i64 0, i64 %27
  %29 = load i32, i32* %10, align 4
  %30 = sext i32 %29 to i64
  %31 = getelementptr inbounds [100 x [5 x i8]], [100 x [5 x i8]]* %2, i64 0, i64 %30
  %32 = load i32, i32* %10, align 4
  %33 = sext i32 %32 to i64
  %34 = getelementptr inbounds [100 x [5 x i8]], [100 x [5 x i8]]* %3, i64 0, i64 %33
  %35 = load i32, i32* %10, align 4
  %36 = sext i32 %35 to i64
  %37 = getelementptr inbounds [100 x i32], [100 x i32]* %6, i64 0, i64 %36
  %38 = call i32 (i8*, ...) @__isoc99_scanf(i8* getelementptr inbounds ([13 x i8], [13 x i8]* @.str.1, i64 0, i64 0), [100 x i8]* %22, i32* %25, i32* %28, [5 x i8]* %31, [5 x i8]* %34, i32* %37)
  br label %39

39:                                               ; preds = %19
  %40 = load i32, i32* %10, align 4
  %41 = add nsw i32 %40, 1
  store i32 %41, i32* %10, align 4
  br label %15

42:                                               ; preds = %15
  store i32 0, i32* %10, align 4
  br label %43

43:                                               ; preds = %157, %42
  %44 = load i32, i32* %10, align 4
  %45 = load i32, i32* %8, align 4
  %46 = icmp slt i32 %44, %45
  br i1 %46, label %47, label %160

47:                                               ; preds = %43
  %48 = load i32, i32* %10, align 4
  %49 = sext i32 %48 to i64
  %50 = getelementptr inbounds [100 x i32], [100 x i32]* %4, i64 0, i64 %49
  %51 = load i32, i32* %50, align 4
  %52 = icmp sgt i32 %51, 80
  br i1 %52, label %53, label %68

53:                                               ; preds = %47
  %54 = load i32, i32* %10, align 4
  %55 = sext i32 %54 to i64
  %56 = getelementptr inbounds [100 x i32], [100 x i32]* %6, i64 0, i64 %55
  %57 = load i32, i32* %56, align 4
  %58 = icmp sge i32 %57, 1
  br i1 %58, label %59, label %68

59:                                               ; preds = %53
  %60 = load i32, i32* %10, align 4
  %61 = sext i32 %60 to i64
  %62 = getelementptr inbounds [100 x i32], [100 x i32]* %7, i64 0, i64 %61
  %63 = load i32, i32* %62, align 4
  %64 = add nsw i32 %63, 8000
  %65 = load i32, i32* %10, align 4
  %66 = sext i32 %65 to i64
  %67 = getelementptr inbounds [100 x i32], [100 x i32]* %7, i64 0, i64 %66
  store i32 %64, i32* %67, align 4
  br label %68

68:                                               ; preds = %59, %53, %47
  %69 = load i32, i32* %10, align 4
  %70 = sext i32 %69 to i64
  %71 = getelementptr inbounds [100 x i32], [100 x i32]* %4, i64 0, i64 %70
  %72 = load i32, i32* %71, align 4
  %73 = icmp sgt i32 %72, 85
  br i1 %73, label %74, label %89

74:                                               ; preds = %68
  %75 = load i32, i32* %10, align 4
  %76 = sext i32 %75 to i64
  %77 = getelementptr inbounds [100 x i32], [100 x i32]* %5, i64 0, i64 %76
  %78 = load i32, i32* %77, align 4
  %79 = icmp sgt i32 %78, 80
  br i1 %79, label %80, label %89

80:                                               ; preds = %74
  %81 = load i32, i32* %10, align 4
  %82 = sext i32 %81 to i64
  %83 = getelementptr inbounds [100 x i32], [100 x i32]* %7, i64 0, i64 %82
  %84 = load i32, i32* %83, align 4
  %85 = add nsw i32 %84, 4000
  %86 = load i32, i32* %10, align 4
  %87 = sext i32 %86 to i64
  %88 = getelementptr inbounds [100 x i32], [100 x i32]* %7, i64 0, i64 %87
  store i32 %85, i32* %88, align 4
  br label %89

89:                                               ; preds = %80, %74, %68
  %90 = load i32, i32* %10, align 4
  %91 = sext i32 %90 to i64
  %92 = getelementptr inbounds [100 x i32], [100 x i32]* %4, i64 0, i64 %91
  %93 = load i32, i32* %92, align 4
  %94 = icmp sgt i32 %93, 90
  br i1 %94, label %95, label %104

95:                                               ; preds = %89
  %96 = load i32, i32* %10, align 4
  %97 = sext i32 %96 to i64
  %98 = getelementptr inbounds [100 x i32], [100 x i32]* %7, i64 0, i64 %97
  %99 = load i32, i32* %98, align 4
  %100 = add nsw i32 %99, 2000
  %101 = load i32, i32* %10, align 4
  %102 = sext i32 %101 to i64
  %103 = getelementptr inbounds [100 x i32], [100 x i32]* %7, i64 0, i64 %102
  store i32 %100, i32* %103, align 4
  br label %104

104:                                              ; preds = %95, %89
  %105 = load i32, i32* %10, align 4
  %106 = sext i32 %105 to i64
  %107 = getelementptr inbounds [100 x [5 x i8]], [100 x [5 x i8]]* %3, i64 0, i64 %106
  %108 = getelementptr inbounds [5 x i8], [5 x i8]* %107, i64 0, i64 0
  %109 = load i8, i8* %108, align 1
  %110 = sext i8 %109 to i32
  %111 = icmp eq i32 %110, 89
  br i1 %111, label %112, label %127

112:                                              ; preds = %104
  %113 = load i32, i32* %10, align 4
  %114 = sext i32 %113 to i64
  %115 = getelementptr inbounds [100 x i32], [100 x i32]* %4, i64 0, i64 %114
  %116 = load i32, i32* %115, align 4
  %117 = icmp sgt i32 %116, 85
  br i1 %117, label %118, label %127

118:                                              ; preds = %112
  %119 = load i32, i32* %10, align 4
  %120 = sext i32 %119 to i64
  %121 = getelementptr inbounds [100 x i32], [100 x i32]* %7, i64 0, i64 %120
  %122 = load i32, i32* %121, align 4
  %123 = add nsw i32 %122, 1000
  %124 = load i32, i32* %10, align 4
  %125 = sext i32 %124 to i64
  %126 = getelementptr inbounds [100 x i32], [100 x i32]* %7, i64 0, i64 %125
  store i32 %123, i32* %126, align 4
  br label %127

127:                                              ; preds = %118, %112, %104
  %128 = load i32, i32* %10, align 4
  %129 = sext i32 %128 to i64
  %130 = getelementptr inbounds [100 x [5 x i8]], [100 x [5 x i8]]* %2, i64 0, i64 %129
  %131 = getelementptr inbounds [5 x i8], [5 x i8]* %130, i64 0, i64 0
  %132 = load i8, i8* %131, align 1
  %133 = sext i8 %132 to i32
  %134 = icmp eq i32 %133, 89
  br i1 %134, label %135, label %150

135:                                              ; preds = %127
  %136 = load i32, i32* %10, align 4
  %137 = sext i32 %136 to i64
  %138 = getelementptr inbounds [100 x i32], [100 x i32]* %5, i64 0, i64 %137
  %139 = load i32, i32* %138, align 4
  %140 = icmp sgt i32 %139, 80
  br i1 %140, label %141, label %150

141:                                              ; preds = %135
  %142 = load i32, i32* %10, align 4
  %143 = sext i32 %142 to i64
  %144 = getelementptr inbounds [100 x i32], [100 x i32]* %7, i64 0, i64 %143
  %145 = load i32, i32* %144, align 4
  %146 = add nsw i32 %145, 850
  %147 = load i32, i32* %10, align 4
  %148 = sext i32 %147 to i64
  %149 = getelementptr inbounds [100 x i32], [100 x i32]* %7, i64 0, i64 %148
  store i32 %146, i32* %149, align 4
  br label %150

150:                                              ; preds = %141, %135, %127
  %151 = load i32, i32* %9, align 4
  %152 = load i32, i32* %10, align 4
  %153 = sext i32 %152 to i64
  %154 = getelementptr inbounds [100 x i32], [100 x i32]* %7, i64 0, i64 %153
  %155 = load i32, i32* %154, align 4
  %156 = add nsw i32 %151, %155
  store i32 %156, i32* %9, align 4
  br label %157

157:                                              ; preds = %150
  %158 = load i32, i32* %10, align 4
  %159 = add nsw i32 %158, 1
  store i32 %159, i32* %10, align 4
  br label %43

160:                                              ; preds = %43
  store i32 0, i32* %11, align 4
  store i32 0, i32* %10, align 4
  br label %161

161:                                              ; preds = %179, %160
  %162 = load i32, i32* %10, align 4
  %163 = load i32, i32* %8, align 4
  %164 = icmp slt i32 %162, %163
  br i1 %164, label %165, label %182

165:                                              ; preds = %161
  %166 = load i32, i32* %10, align 4
  %167 = sext i32 %166 to i64
  %168 = getelementptr inbounds [100 x i32], [100 x i32]* %7, i64 0, i64 %167
  %169 = load i32, i32* %168, align 4
  %170 = load i32, i32* %11, align 4
  %171 = icmp sgt i32 %169, %170
  br i1 %171, label %172, label %178

172:                                              ; preds = %165
  %173 = load i32, i32* %10, align 4
  %174 = sext i32 %173 to i64
  %175 = getelementptr inbounds [100 x i32], [100 x i32]* %7, i64 0, i64 %174
  %176 = load i32, i32* %175, align 4
  store i32 %176, i32* %11, align 4
  %177 = load i32, i32* %10, align 4
  store i32 %177, i32* %12, align 4
  br label %178

178:                                              ; preds = %172, %165
  br label %179

179:                                              ; preds = %178
  %180 = load i32, i32* %10, align 4
  %181 = add nsw i32 %180, 1
  store i32 %181, i32* %10, align 4
  br label %161

182:                                              ; preds = %161
  %183 = load i32, i32* %12, align 4
  %184 = sext i32 %183 to i64
  %185 = getelementptr inbounds [100 x [100 x i8]], [100 x [100 x i8]]* %1, i64 0, i64 %184
  %186 = getelementptr inbounds [100 x i8], [100 x i8]* %185, i64 0, i64 0
  %187 = call i32 (i8*, ...) @printf(i8* getelementptr inbounds ([4 x i8], [4 x i8]* @.str.2, i64 0, i64 0), i8* %186)
  %188 = load i32, i32* %12, align 4
  %189 = sext i32 %188 to i64
  %190 = getelementptr inbounds [100 x i32], [100 x i32]* %7, i64 0, i64 %189
  %191 = load i32, i32* %190, align 4
  %192 = load i32, i32* %9, align 4
  %193 = call i32 (i8*, ...) @printf(i8* getelementptr inbounds ([7 x i8], [7 x i8]* @.str.3, i64 0, i64 0), i32 %191, i32 %192)
  ret void
}

; Function Attrs: argmemonly nounwind willreturn
declare void @llvm.memset.p0i8.i64(i8* nocapture writeonly, i8, i64, i1 immarg) #1

declare dso_local i32 @__isoc99_scanf(i8*, ...) #2

declare dso_local i32 @printf(i8*, ...) #2


!llvm.module.flags = !{!0}
!llvm.ident = !{!1}

!0 = !{i32 1, !"wchar_size", i32 4}
!1 = !{!"clang version 10.0.0-4ubuntu1 "}
